target datalayout = "e-m:e-p270:32:32-p271:32:32-p272:64:64-i64:64-i128:128-f80:128-n8:16:32:64-S128"
target triple = "x86_64-pc-linux-gnu"

@s_Truths6 = internal global [6 x i64] [i64 -6148914691236517206, i64 -3689348814741910324, i64 -1085102592571150096, i64 -71777214294589696, i64 -281470681808896, i64 -4294967296], align 16
@s_Truths6Neg = internal global [6 x i64] [i64 6148914691236517205, i64 3689348814741910323, i64 1085102592571150095, i64 71777214294589695, i64 281470681808895, i64 4294967295], align 16

; Function Attrs: inlinehint nounwind uwtable
define internal i64 @Abc_Tt6Cofactor0(i64 noundef %0, i32 noundef %1) #3 {
  %3 = alloca i64, align 8
  %4 = alloca i32, align 4
  store i64 %0, ptr %3, align 8, !tbaa !3
  store i32 %1, ptr %4, align 4, !tbaa !7
  %5 = load i64, ptr %3, align 8, !tbaa !3
  %6 = load i32, ptr %4, align 4, !tbaa !7
  %7 = sext i32 %6 to i64
  %8 = getelementptr inbounds [6 x i64], ptr @s_Truths6Neg, i64 0, i64 %7
  %9 = load i64, ptr %8, align 8, !tbaa !3
  %10 = and i64 %5, %9
  %11 = load i64, ptr %3, align 8, !tbaa !3
  %12 = load i32, ptr %4, align 4, !tbaa !7
  %13 = sext i32 %12 to i64
  %14 = getelementptr inbounds [6 x i64], ptr @s_Truths6Neg, i64 0, i64 %13
  %15 = load i64, ptr %14, align 8, !tbaa !3
  %16 = and i64 %11, %15
  %17 = load i32, ptr %4, align 4, !tbaa !7
  %18 = shl i32 1, %17
  %19 = zext i32 %18 to i64
  %20 = shl i64 %16, %19
  %21 = or i64 %10, %20
  ret i64 %21
}

; Function Attrs: inlinehint nounwind uwtable
define internal i64 @Abc_Tt6Cofactor1(i64 noundef %0, i32 noundef %1) #3 {
  %3 = alloca i64, align 8
  %4 = alloca i32, align 4
  store i64 %0, ptr %3, align 8, !tbaa !3
  store i32 %1, ptr %4, align 4, !tbaa !7
  %5 = load i64, ptr %3, align 8, !tbaa !3
  %6 = load i32, ptr %4, align 4, !tbaa !7
  %7 = sext i32 %6 to i64
  %8 = getelementptr inbounds [6 x i64], ptr @s_Truths6, i64 0, i64 %7
  %9 = load i64, ptr %8, align 8, !tbaa !3
  %10 = and i64 %5, %9
  %11 = load i64, ptr %3, align 8, !tbaa !3
  %12 = load i32, ptr %4, align 4, !tbaa !7
  %13 = sext i32 %12 to i64
  %14 = getelementptr inbounds [6 x i64], ptr @s_Truths6, i64 0, i64 %13
  %15 = load i64, ptr %14, align 8, !tbaa !3
  %16 = and i64 %11, %15
  %17 = load i32, ptr %4, align 4, !tbaa !7
  %18 = shl i32 1, %17
  %19 = zext i32 %18 to i64
  %20 = lshr i64 %16, %19
  %21 = or i64 %10, %20
  ret i64 %21
}

; Function Attrs: inlinehint nounwind uwtable
define internal i32 @Abc_Tt6Check2(i64 noundef %0, i32 noundef %1) #3 {
  %3 = alloca i32, align 4
  %4 = alloca i64, align 8
  %5 = alloca i32, align 4
  %6 = alloca i32, align 4
  %7 = alloca i32, align 4
  %8 = alloca i64, align 8
  %9 = alloca i32, align 4
  store i64 %0, ptr %4, align 8, !tbaa !3
  store i32 %1, ptr %5, align 4, !tbaa !7
  call void @llvm.lifetime.start.p0(i64 4, ptr %6) #7
  call void @llvm.lifetime.start.p0(i64 4, ptr %7) #7
  store i32 0, ptr %6, align 4, !tbaa !7
  br label %10

10:                                               ; preds = %46, %2
  %11 = load i32, ptr %6, align 4, !tbaa !7
  %12 = icmp slt i32 %11, 2
  br i1 %12, label %13, label %49

13:                                               ; preds = %10
  store i32 0, ptr %7, align 4, !tbaa !7
  br label %14

14:                                               ; preds = %42, %13
  %15 = load i32, ptr %7, align 4, !tbaa !7
  %16 = load i32, ptr %5, align 4, !tbaa !7
  %17 = icmp slt i32 %15, %16
  br i1 %17, label %18, label %45

18:                                               ; preds = %14
  call void @llvm.lifetime.start.p0(i64 8, ptr %8) #7
  %19 = load i32, ptr %6, align 4, !tbaa !7
  %20 = icmp ne i32 %19, 0
  br i1 %20, label %21, label %25

21:                                               ; preds = %18
  %22 = load i64, ptr %4, align 8, !tbaa !3
  %23 = load i32, ptr %7, align 4, !tbaa !7
  %24 = call i64 @Abc_Tt6Cofactor1(i64 noundef %22, i32 noundef %23)
  br label %29

25:                                               ; preds = %18
  %26 = load i64, ptr %4, align 8, !tbaa !3
  %27 = load i32, ptr %7, align 4, !tbaa !7
  %28 = call i64 @Abc_Tt6Cofactor0(i64 noundef %26, i32 noundef %27)
  br label %29

29:                                               ; preds = %25, %21
  %30 = phi i64 [ %24, %21 ], [ %28, %25 ]
  store i64 %30, ptr %8, align 8, !tbaa !3
  %31 = load i64, ptr %8, align 8, !tbaa !3
  %32 = icmp eq i64 %31, 0
  br i1 %32, label %37, label %33

33:                                               ; preds = %29
  %34 = load i64, ptr %8, align 8, !tbaa !3
  %35 = xor i64 %34, -1
  %36 = icmp eq i64 %35, 0
  br i1 %36, label %37, label %38

37:                                               ; preds = %33, %29
  store i32 1, ptr %3, align 4
  store i32 1, ptr %9, align 4
  br label %39

38:                                               ; preds = %33
  store i32 0, ptr %9, align 4
  br label %39

39:                                               ; preds = %38, %37
  call void @llvm.lifetime.end.p0(i64 8, ptr %8) #7
  %40 = load i32, ptr %9, align 4
  switch i32 %40, label %50 [
    i32 0, label %41
  ]

41:                                               ; preds = %39
  br label %42

42:                                               ; preds = %41
  %43 = load i32, ptr %7, align 4, !tbaa !7
  %44 = add nsw i32 %43, 1
  store i32 %44, ptr %7, align 4, !tbaa !7
  br label %14, !llvm.loop !79

45:                                               ; preds = %14
  br label %46

46:                                               ; preds = %45
  %47 = load i32, ptr %6, align 4, !tbaa !7
  %48 = add nsw i32 %47, 1
  store i32 %48, ptr %6, align 4, !tbaa !7
  br label %10, !llvm.loop !80

49:                                               ; preds = %10
  store i32 0, ptr %3, align 4
  store i32 1, ptr %9, align 4
  br label %50

50:                                               ; preds = %49, %39
  call void @llvm.lifetime.end.p0(i64 4, ptr %7) #7
  call void @llvm.lifetime.end.p0(i64 4, ptr %6) #7
  %51 = load i32, ptr %3, align 4
  ret i32 %51
}

; Function Attrs: nounwind uwtable
define i32 @If_MatchCheck2(ptr noundef %0, ptr noundef %1, i32 noundef %2, i32 noundef %3, ptr noundef %4) #0 {
  %6 = alloca i32, align 4
  %7 = alloca ptr, align 8
  %8 = alloca ptr, align 8
  %9 = alloca i32, align 4
  %10 = alloca i32, align 4
  %11 = alloca ptr, align 8
  store ptr %0, ptr %7, align 8, !tbaa !70
  store ptr %1, ptr %8, align 8, !tbaa !27
  store i32 %2, ptr %9, align 4, !tbaa !7
  store i32 %3, ptr %10, align 4, !tbaa !7
  store ptr %4, ptr %11, align 8, !tbaa !42
  %12 = load i32, ptr %10, align 4, !tbaa !7
  %13 = load i32, ptr %9, align 4, !tbaa !7
  %14 = icmp slt i32 %12, %13
  br i1 %14, label %15, label %16

15:                                               ; preds = %5
  store i32 1, ptr %6, align 4
  br label %25

16:                                               ; preds = %5
  %17 = load ptr, ptr %8, align 8, !tbaa !27
  %18 = getelementptr inbounds i64, ptr %17, i64 0
  %19 = load i64, ptr %18, align 8, !tbaa !3
  %20 = load i32, ptr %10, align 4, !tbaa !7
  %21 = call i32 @Abc_Tt6Check2(i64 noundef %19, i32 noundef %20)
  %22 = icmp ne i32 %21, 0
  br i1 %22, label %23, label %24

23:                                               ; preds = %16
  store i32 1, ptr %6, align 4
  br label %25

24:                                               ; preds = %16
  store i32 0, ptr %6, align 4
  br label %25

25:                                               ; preds = %24, %23, %15
  %26 = load i32, ptr %6, align 4
  ret i32 %26
}