; Function Attrs: nofree norecurse nosync nounwind memory(argmem: read) uwtable
define range(i32 0, 2) i32 @If_MatchCheck2(ptr noundef readnone captures(none) %0, ptr noundef readonly captures(none) %1, i32 noundef %2, i32 noundef %3, ptr noundef readnone captures(none) %4) local_unnamed_addr #5 {
  %6 = icmp slt i32 %3, %2
  br i1 %6, label %Abc_Tt6Check2.exit, label %7

7:                                                ; preds = %5
  %8 = load i64, ptr %1, align 8, !tbaa !10
  %9 = icmp sgt i32 %3, 0
  br i1 %9, label %.preheader.us.preheader.i, label %Abc_Tt6Check2.exit

.preheader.us.preheader.i:                        ; preds = %7
  %wide.trip.count.i = zext nneg i32 %3 to i64
  br label %.preheader.us.i

.preheader.us.i:                                  ; preds = %._crit_edge.us.i, %.preheader.us.preheader.i
  %.not.us.i = phi i1 [ false, %._crit_edge.us.i ], [ true, %.preheader.us.preheader.i ]
  br i1 %.not.us.i, label %.lr.ph.split.us.us.i, label %.lr.ph.split.us24.i

.lr.ph.split.us24.i:                              ; preds = %.preheader.us.i, %.critedge.us22.i
  %indvars.iv.i = phi i64 [ %indvars.iv.next.i, %.critedge.us22.i ], [ 0, %.preheader.us.i ]
  %10 = getelementptr inbounds nuw [6 x i64], ptr @s_Truths6, i64 0, i64 %indvars.iv.i
  %11 = load i64, ptr %10, align 8, !tbaa !10
  %12 = and i64 %11, %8
  %13 = trunc nuw nsw i64 %indvars.iv.i to i32
  %14 = shl nuw i32 1, %13
  %15 = zext nneg i32 %14 to i64
  %16 = lshr i64 %12, %15
  %17 = or i64 %16, %12
  switch i64 %17, label %.critedge.us22.i [
    i64 0, label %Abc_Tt6Check2.exit
    i64 -1, label %Abc_Tt6Check2.exit
  ]

.critedge.us22.i:                                 ; preds = %.lr.ph.split.us24.i
  %indvars.iv.next.i = add nuw nsw i64 %indvars.iv.i, 1
  %exitcond.not.i = icmp eq i64 %indvars.iv.next.i, %wide.trip.count.i
  br i1 %exitcond.not.i, label %._crit_edge.us.i, label %.lr.ph.split.us24.i, !llvm.loop !71

._crit_edge.us.i:                                 ; preds = %.critedge.us22.i, %.critedge.us.us.i
  br i1 %.not.us.i, label %.preheader.us.i, label %Abc_Tt6Check2.exit, !llvm.loop !72

.lr.ph.split.us.us.i:                             ; preds = %.preheader.us.i, %.critedge.us.us.i
  %indvars.iv30.i = phi i64 [ %indvars.iv.next31.i, %.critedge.us.us.i ], [ 0, %.preheader.us.i ]
  %18 = getelementptr inbounds nuw [6 x i64], ptr @s_Truths6Neg, i64 0, i64 %indvars.iv30.i
  %19 = load i64, ptr %18, align 8, !tbaa !10
  %20 = and i64 %19, %8
  %21 = trunc nuw nsw i64 %indvars.iv30.i to i32
  %22 = shl nuw i32 1, %21
  %23 = zext nneg i32 %22 to i64
  %24 = shl i64 %20, %23
  %25 = or i64 %24, %20
  switch i64 %25, label %.critedge.us.us.i [
    i64 0, label %Abc_Tt6Check2.exit
    i64 -1, label %Abc_Tt6Check2.exit
  ]

.critedge.us.us.i:                                ; preds = %.lr.ph.split.us.us.i
  %indvars.iv.next31.i = add nuw nsw i64 %indvars.iv30.i, 1
  %exitcond34.not.i = icmp eq i64 %indvars.iv.next31.i, %wide.trip.count.i
  br i1 %exitcond34.not.i, label %._crit_edge.us.i, label %.lr.ph.split.us.us.i, !llvm.loop !71

Abc_Tt6Check2.exit:                               ; preds = %._crit_edge.us.i, %.lr.ph.split.us24.i, %.lr.ph.split.us24.i, %.lr.ph.split.us.us.i, %.lr.ph.split.us.us.i, %7, %5
  %.0 = phi i32 [ 1, %5 ], [ 0, %7 ], [ 1, %.lr.ph.split.us.us.i ], [ 1, %.lr.ph.split.us.us.i ], [ 1, %.lr.ph.split.us24.i ], [ 1, %.lr.ph.split.us24.i ], [ 0, %._crit_edge.us.i ]
  ret i32 %.0
}